target datalayout = "e-m:e-p270:32:32-p271:32:32-p272:64:64-i64:64-i128:128-f80:128-n8:16:32:64-S128"
target triple = "x86_64-pc-linux-gnu"

%struct.H5D_layout_ops_t = type { ptr, ptr, ptr, ptr, ptr, ptr, ptr, ptr, ptr, ptr, ptr, ptr, ptr }
%struct.H5D_dset_io_info_t = type { ptr, ptr, %struct.H5D_layout_ops_t, %union.H5_flexible_const_ptr_t, %struct.H5D_io_ops_t, ptr, i64, ptr, ptr, %union.anon.8, ptr, %struct.H5D_type_info_t, i8 }
%union.H5_flexible_const_ptr_t = type { ptr }
%struct.H5D_io_ops_t = type { ptr, ptr, ptr, ptr }
%union.anon.8 = type { ptr }
%struct.H5D_type_info_t = type { ptr, ptr, ptr, ptr, ptr, i64, i64, i8, i8, ptr, i32, i64 }
%struct.H5D_chunk_map_t = type { i32, ptr, %struct.H5S_sel_iter_t, i32, i32, i32, ptr, ptr, ptr, i8, i64, ptr, [33 x i64] }
%struct.H5S_sel_iter_t = type { ptr, i32, [32 x i64], [32 x i64], i64, i64, i32, %union.anon.9 }
%union.anon.9 = type { %struct.H5S_hyper_iter_t }
%struct.H5S_hyper_iter_t = type { [32 x i64], [32 x i64], i32, i8, [32 x %struct.H5S_hyper_dim_t], [32 x i64], [32 x i64], [32 x i8], [32 x i64], ptr, [32 x ptr] }
%struct.H5S_hyper_dim_t = type { i64, i64, i64, i64 }
%struct.H5D_piece_info_t = type { i64, i64, i64, [33 x i64], ptr, i32, ptr, i32, i8, i64, i8, ptr }

@H5D_init_g = external global i8, align 1
@H5_libterm_g = external global i8, align 1
@.str.1 = private unnamed_addr constant [102 x i8] c"generated/home/dtcxzyw/WorkSpace/Projects/compilers/llvm-opt-benchmark/bench/hdf5/hdf5/src/H5Dchunk.c\00", align 1
@H5E_DATASET_g = external global i64, align 8
@H5E_CANTGET_g = external global i64, align 8
@H5E_DATASPACE_g = external global i64, align 8
@H5E_CANTCOPY_g = external global i64, align 8
@H5E_CANTSELECT_g = external global i64, align 8
@.str.116 = private unnamed_addr constant [28 x i8] c"unable to copy memory space\00", align 1
@.str.123 = private unnamed_addr constant [36 x i8] c"can't get file selection bound info\00", align 1
@.str.137 = private unnamed_addr constant [36 x i8] c"can't create chunk memory selection\00", align 1
@__func__.H5D__create_piece_mem_map_1d = private unnamed_addr constant [29 x i8] c"H5D__create_piece_mem_map_1d\00", align 1

; Function Attrs: nounwind uwtable
define internal i32 @H5D__create_piece_mem_map_1d(ptr noundef %0) #0 {
  %2 = alloca i32, align 4
  %3 = alloca ptr, align 8
  %4 = alloca ptr, align 8
  %5 = alloca ptr, align 8
  %6 = alloca ptr, align 8
  %7 = alloca i32, align 4
  %8 = alloca i8, align 1
  %9 = alloca [32 x i64], align 16
  %10 = alloca [32 x i64], align 16
  %11 = alloca i64, align 8
  %12 = alloca i64, align 8
  %13 = alloca i32, align 4
  store ptr %0, ptr %3, align 8, !tbaa !87
  call void @llvm.lifetime.start.p0(i64 8, ptr %4) #10
  call void @llvm.lifetime.start.p0(i64 8, ptr %5) #10
  call void @llvm.lifetime.start.p0(i64 8, ptr %6) #10
  call void @llvm.lifetime.start.p0(i64 4, ptr %7) #10
  store i32 0, ptr %7, align 4, !tbaa !10
  call void @llvm.lifetime.start.p0(i64 1, ptr %8) #10
  store i8 0, ptr %8, align 1, !tbaa !12
  %14 = load i8, ptr @H5D_init_g, align 1, !tbaa !12, !range !14, !noundef !15
  %15 = trunc i8 %14 to i1
  br i1 %15, label %20, label %16

16:                                               ; preds = %1
  %17 = load i8, ptr @H5_libterm_g, align 1, !tbaa !12, !range !14, !noundef !15
  %18 = trunc i8 %17 to i1
  %19 = xor i1 %18, true
  br label %20

20:                                               ; preds = %16, %1
  %21 = phi i1 [ true, %1 ], [ %19, %16 ]
  %22 = xor i1 %21, true
  %23 = xor i1 %22, true
  %24 = zext i1 %23 to i32
  %25 = sext i32 %24 to i64
  %26 = call i64 @llvm.expect.i64(i64 %25, i64 1)
  %27 = icmp ne i64 %26, 0
  br i1 %27, label %28, label %161

28:                                               ; preds = %20
  %29 = load ptr, ptr %3, align 8, !tbaa !87
  %30 = getelementptr inbounds nuw %struct.H5D_dset_io_info_t, ptr %29, i32 0, i32 9
  %31 = load ptr, ptr %30, align 8, !tbaa !23
  store ptr %31, ptr %4, align 8, !tbaa !98
  %32 = load ptr, ptr %4, align 8, !tbaa !98
  %33 = getelementptr inbounds nuw %struct.H5D_chunk_map_t, ptr %32, i32 0, i32 6
  %34 = load ptr, ptr %33, align 8, !tbaa !107
  %35 = call i64 @H5SL_count(ptr noundef %34)
  %36 = icmp eq i64 %35, 1
  br i1 %36, label %37, label %51

37:                                               ; preds = %28
  %38 = load ptr, ptr %4, align 8, !tbaa !98
  %39 = getelementptr inbounds nuw %struct.H5D_chunk_map_t, ptr %38, i32 0, i32 6
  %40 = load ptr, ptr %39, align 8, !tbaa !107
  %41 = call ptr @H5SL_first(ptr noundef %40)
  store ptr %41, ptr %6, align 8, !tbaa !127
  %42 = load ptr, ptr %6, align 8, !tbaa !127
  %43 = call ptr @H5SL_item(ptr noundef %42)
  store ptr %43, ptr %5, align 8, !tbaa !129
  %44 = load ptr, ptr %3, align 8, !tbaa !87
  %45 = getelementptr inbounds nuw %struct.H5D_dset_io_info_t, ptr %44, i32 0, i32 8
  %46 = load ptr, ptr %45, align 8, !tbaa !112
  %47 = load ptr, ptr %5, align 8, !tbaa !129
  %48 = getelementptr inbounds nuw %struct.H5D_piece_info_t, ptr %47, i32 0, i32 6
  store ptr %46, ptr %48, align 8, !tbaa !134
  %49 = load ptr, ptr %5, align 8, !tbaa !129
  %50 = getelementptr inbounds nuw %struct.H5D_piece_info_t, ptr %49, i32 0, i32 7
  store i32 1, ptr %50, align 8, !tbaa !249
  br label %159

51:                                               ; preds = %28
  call void @llvm.lifetime.start.p0(i64 256, ptr %9) #10
  call void @llvm.lifetime.start.p0(i64 256, ptr %10) #10
  %52 = load ptr, ptr %3, align 8, !tbaa !87
  %53 = getelementptr inbounds nuw %struct.H5D_dset_io_info_t, ptr %52, i32 0, i32 8
  %54 = load ptr, ptr %53, align 8, !tbaa !112
  %55 = getelementptr inbounds [32 x i64], ptr %9, i64 0, i64 0
  %56 = getelementptr inbounds [32 x i64], ptr %10, i64 0, i64 0
  %57 = call i32 @H5S_get_select_bounds(ptr noundef %54, ptr noundef %55, ptr noundef %56)
  %58 = icmp slt i32 %57, 0
  br i1 %58, label %59, label %78

59:                                               ; preds = %51
  br label %60

60:                                               ; preds = %59
  br label %61

61:                                               ; preds = %60
  br label %62

62:                                               ; preds = %61
  %63 = load i64, ptr @H5E_DATASPACE_g, align 8, !tbaa !24
  %64 = load i64, ptr @H5E_CANTGET_g, align 8, !tbaa !24
  %65 = call i32 (ptr, ptr, i32, i64, i64, ptr, ...) @H5E_printf_stack(ptr noundef @.str.1, ptr noundef @__func__.H5D__create_piece_mem_map_1d, i32 noundef 2191, i64 noundef %63, i64 noundef %64, ptr noundef @.str.123)
  br label %66

66:                                               ; preds = %62
  br label %67

67:                                               ; preds = %66
  store i8 1, ptr %8, align 1, !tbaa !12
  %68 = load i8, ptr %8, align 1, !tbaa !12, !range !14, !noundef !15
  %69 = trunc i8 %68 to i1
  %70 = zext i1 %69 to i8
  store i8 %70, ptr %8, align 1, !tbaa !12
  br label %71

71:                                               ; preds = %67
  br label %72

72:                                               ; preds = %71
  br label %73

73:                                               ; preds = %72
  store i32 -1, ptr %7, align 4, !tbaa !10
  store i32 10, ptr %13, align 4
  br label %156

74:                                               ; No predecessors!
  br label %75

75:                                               ; preds = %74
  br label %76

76:                                               ; preds = %75
  br label %77

77:                                               ; preds = %76
  br label %78

78:                                               ; preds = %77, %51
  %79 = load ptr, ptr %4, align 8, !tbaa !98
  %80 = getelementptr inbounds nuw %struct.H5D_chunk_map_t, ptr %79, i32 0, i32 6
  %81 = load ptr, ptr %80, align 8, !tbaa !107
  %82 = call ptr @H5SL_first(ptr noundef %81)
  store ptr %82, ptr %6, align 8, !tbaa !127
  br label %83

83:                                               ; preds = %154, %78
  %84 = load ptr, ptr %6, align 8, !tbaa !127
  %85 = icmp ne ptr %84, null
  br i1 %85, label %86, label %155

86:                                               ; preds = %83
  call void @llvm.lifetime.start.p0(i64 8, ptr %11) #10
  call void @llvm.lifetime.start.p0(i64 8, ptr %12) #10
  store i64 1, ptr %12, align 8, !tbaa !24
  %87 = load ptr, ptr %6, align 8, !tbaa !127
  %88 = call ptr @H5SL_item(ptr noundef %87)
  store ptr %88, ptr %5, align 8, !tbaa !129
  %89 = load ptr, ptr %3, align 8, !tbaa !87
  %90 = getelementptr inbounds nuw %struct.H5D_dset_io_info_t, ptr %89, i32 0, i32 8
  %91 = load ptr, ptr %90, align 8, !tbaa !112
  %92 = call ptr @H5S_copy(ptr noundef %91, i1 noundef zeroext true, i1 noundef zeroext false)
  %93 = load ptr, ptr %5, align 8, !tbaa !129
  %94 = getelementptr inbounds nuw %struct.H5D_piece_info_t, ptr %93, i32 0, i32 6
  store ptr %92, ptr %94, align 8, !tbaa !134
  %95 = icmp eq ptr %92, null
  br i1 %95, label %96, label %115

96:                                               ; preds = %86
  br label %97

97:                                               ; preds = %96
  br label %98

98:                                               ; preds = %97
  br label %99

99:                                               ; preds = %98
  %100 = load i64, ptr @H5E_DATASPACE_g, align 8, !tbaa !24
  %101 = load i64, ptr @H5E_CANTCOPY_g, align 8, !tbaa !24
  %102 = call i32 (ptr, ptr, i32, i64, i64, ptr, ...) @H5E_printf_stack(ptr noundef @.str.1, ptr noundef @__func__.H5D__create_piece_mem_map_1d, i32 noundef 2205, i64 noundef %100, i64 noundef %101, ptr noundef @.str.116)
  br label %103

103:                                              ; preds = %99
  br label %104

104:                                              ; preds = %103
  store i8 1, ptr %8, align 1, !tbaa !12
  %105 = load i8, ptr %8, align 1, !tbaa !12, !range !14, !noundef !15
  %106 = trunc i8 %105 to i1
  %107 = zext i1 %106 to i8
  store i8 %107, ptr %8, align 1, !tbaa !12
  br label %108

108:                                              ; preds = %104
  br label %109

109:                                              ; preds = %108
  br label %110

110:                                              ; preds = %109
  store i32 -1, ptr %7, align 4, !tbaa !10
  store i32 10, ptr %13, align 4
  br label %152

111:                                              ; No predecessors!
  br label %112

112:                                              ; preds = %111
  br label %113

113:                                              ; preds = %112
  br label %114

114:                                              ; preds = %113
  br label %115

115:                                              ; preds = %114, %86
  %116 = load ptr, ptr %5, align 8, !tbaa !129
  %117 = getelementptr inbounds nuw %struct.H5D_piece_info_t, ptr %116, i32 0, i32 4
  %118 = load ptr, ptr %117, align 8, !tbaa !162
  %119 = call i64 @H5S_get_select_npoints(ptr noundef %118)
  store i64 %119, ptr %11, align 8, !tbaa !24
  %120 = load ptr, ptr %5, align 8, !tbaa !129
  %121 = getelementptr inbounds nuw %struct.H5D_piece_info_t, ptr %120, i32 0, i32 6
  %122 = load ptr, ptr %121, align 8, !tbaa !134
  %123 = getelementptr inbounds [32 x i64], ptr %9, i64 0, i64 0
  %124 = call i32 @H5S_select_hyperslab(ptr noundef %122, i32 noundef 0, ptr noundef %123, ptr noundef null, ptr noundef %12, ptr noundef %11)
  %125 = icmp slt i32 %124, 0
  br i1 %125, label %126, label %145

126:                                              ; preds = %115
  br label %127

127:                                              ; preds = %126
  br label %128

128:                                              ; preds = %127
  br label %129

129:                                              ; preds = %128
  %130 = load i64, ptr @H5E_DATASET_g, align 8, !tbaa !24
  %131 = load i64, ptr @H5E_CANTSELECT_g, align 8, !tbaa !24
  %132 = call i32 (ptr, ptr, i32, i64, i64, ptr, ...) @H5E_printf_stack(ptr noundef @.str.1, ptr noundef @__func__.H5D__create_piece_mem_map_1d, i32 noundef 2211, i64 noundef %130, i64 noundef %131, ptr noundef @.str.137)
  br label %133

133:                                              ; preds = %129
  br label %134

134:                                              ; preds = %133
  store i8 1, ptr %8, align 1, !tbaa !12
  %135 = load i8, ptr %8, align 1, !tbaa !12, !range !14, !noundef !15
  %136 = trunc i8 %135 to i1
  %137 = zext i1 %136 to i8
  store i8 %137, ptr %8, align 1, !tbaa !12
  br label %138

138:                                              ; preds = %134
  br label %139

139:                                              ; preds = %138
  br label %140

140:                                              ; preds = %139
  store i32 -1, ptr %7, align 4, !tbaa !10
  store i32 10, ptr %13, align 4
  br label %152

141:                                              ; No predecessors!
  br label %142

142:                                              ; preds = %141
  br label %143

143:                                              ; preds = %142
  br label %144

144:                                              ; preds = %143
  br label %145

145:                                              ; preds = %144, %115
  %146 = load i64, ptr %11, align 8, !tbaa !24
  %147 = getelementptr inbounds [32 x i64], ptr %9, i64 0, i64 0
  %148 = load i64, ptr %147, align 16, !tbaa !24
  %149 = add i64 %148, %146
  store i64 %149, ptr %147, align 16, !tbaa !24
  %150 = load ptr, ptr %6, align 8, !tbaa !127
  %151 = call ptr @H5SL_next(ptr noundef %150)
  store ptr %151, ptr %6, align 8, !tbaa !127
  store i32 0, ptr %13, align 4
  br label %152

152:                                              ; preds = %140, %110, %145
  call void @llvm.lifetime.end.p0(i64 8, ptr %12) #10
  call void @llvm.lifetime.end.p0(i64 8, ptr %11) #10
  %153 = load i32, ptr %13, align 4
  switch i32 %153, label %156 [
    i32 0, label %154
  ]

154:                                              ; preds = %152
  br label %83, !llvm.loop !452

155:                                              ; preds = %83
  store i32 0, ptr %13, align 4
  br label %156

156:                                              ; preds = %73, %155, %152
  call void @llvm.lifetime.end.p0(i64 256, ptr %10) #10
  call void @llvm.lifetime.end.p0(i64 256, ptr %9) #10
  %157 = load i32, ptr %13, align 4
  switch i32 %157, label %163 [
    i32 0, label %158
    i32 10, label %160
  ]

158:                                              ; preds = %156
  br label %159

159:                                              ; preds = %158, %37
  br label %160

160:                                              ; preds = %159, %156
  br label %161

161:                                              ; preds = %160, %20
  %162 = load i32, ptr %7, align 4, !tbaa !10
  store i32 %162, ptr %2, align 4
  store i32 1, ptr %13, align 4
  br label %163

163:                                              ; preds = %161, %156
  call void @llvm.lifetime.end.p0(i64 1, ptr %8) #10
  call void @llvm.lifetime.end.p0(i64 4, ptr %7) #10
  call void @llvm.lifetime.end.p0(i64 8, ptr %6) #10
  call void @llvm.lifetime.end.p0(i64 8, ptr %5) #10
  call void @llvm.lifetime.end.p0(i64 8, ptr %4) #10
  %164 = load i32, ptr %2, align 4
  ret i32 %164
}