; Function Attrs: nounwind uwtable
define internal fastcc range(i32 -1, 1) i32 @H5D__create_piece_mem_map_1d(ptr noundef readonly captures(none) %0) unnamed_addr #0 {
  %2 = alloca [32 x i64], align 16
  %3 = alloca [32 x i64], align 16
  %4 = alloca i64, align 8
  %5 = alloca i64, align 8
  %6 = load i8, ptr @H5D_init_g, align 1, !tbaa !3, !range !7, !noundef !8
  %7 = trunc nuw i8 %6 to i1
  %8 = load i8, ptr @H5_libterm_g, align 1, !range !7
  %9 = trunc nuw i8 %8 to i1
  %10 = xor i1 %9, true
  %11 = select i1 %7, i1 true, i1 %10
  br i1 %11, label %12, label %64, !prof !9

12:                                               ; preds = %1
  %13 = getelementptr inbounds nuw i8, ptr %0, i64 192
  %14 = load ptr, ptr %13, align 8, !tbaa !20
  %15 = getelementptr inbounds nuw i8, ptr %14, i64 3192
  %16 = load ptr, ptr %15, align 8, !tbaa !132
  %17 = tail call i64 @H5SL_count(ptr noundef %16) #15
  %18 = icmp eq i64 %17, 1
  br i1 %18, label %19, label %27

19:                                               ; preds = %12
  %20 = load ptr, ptr %15, align 8, !tbaa !132
  %21 = tail call ptr @H5SL_first(ptr noundef %20) #15
  %22 = tail call ptr @H5SL_item(ptr noundef %21) #15
  %23 = getelementptr inbounds nuw i8, ptr %0, i64 184
  %24 = load ptr, ptr %23, align 8, !tbaa !98
  %25 = getelementptr inbounds nuw i8, ptr %22, i64 304
  store ptr %24, ptr %25, align 8, !tbaa !117
  %26 = getelementptr inbounds nuw i8, ptr %22, i64 312
  store i32 1, ptr %26, align 8, !tbaa !118
  br label %64

27:                                               ; preds = %12
  call void @llvm.lifetime.start.p0(i64 256, ptr nonnull %2) #15
  call void @llvm.lifetime.start.p0(i64 256, ptr nonnull %3) #15
  %28 = getelementptr inbounds nuw i8, ptr %0, i64 184
  %29 = load ptr, ptr %28, align 8, !tbaa !98
  %30 = call i32 @H5S_get_select_bounds(ptr noundef %29, ptr noundef nonnull %2, ptr noundef nonnull %3) #15
  %31 = icmp slt i32 %30, 0
  br i1 %31, label %32, label %36

32:                                               ; preds = %27
  %33 = load i64, ptr @H5E_DATASPACE_g, align 8, !tbaa !21
  %34 = load i64, ptr @H5E_CANTGET_g, align 8, !tbaa !21
  %35 = call i32 (ptr, ptr, i32, i64, i64, ptr, ...) @H5E_printf_stack(ptr noundef nonnull @.str.1, ptr noundef nonnull @__func__.H5D__create_piece_mem_map_1d, i32 noundef 2191, i64 noundef %33, i64 noundef %34, ptr noundef nonnull @.str.123) #15
  br label %.loopexit

36:                                               ; preds = %27
  %37 = load ptr, ptr %15, align 8, !tbaa !132
  %38 = call ptr @H5SL_first(ptr noundef %37) #15
  %.not30 = icmp eq ptr %38, null
  br i1 %.not30, label %.loopexit, label %.lr.ph

.lr.ph:                                           ; preds = %36, %59
  %.02431 = phi ptr [ %63, %59 ], [ %38, %36 ]
  call void @llvm.lifetime.start.p0(i64 8, ptr nonnull %4) #15
  call void @llvm.lifetime.start.p0(i64 8, ptr nonnull %5) #15
  store i64 1, ptr %5, align 8, !tbaa !21
  %39 = call ptr @H5SL_item(ptr noundef nonnull %.02431) #15
  %40 = load ptr, ptr %28, align 8, !tbaa !98
  %41 = call ptr @H5S_copy(ptr noundef %40, i1 noundef zeroext true, i1 noundef zeroext false) #15
  %42 = getelementptr inbounds nuw i8, ptr %39, i64 304
  store ptr %41, ptr %42, align 8, !tbaa !117
  %43 = icmp eq ptr %41, null
  br i1 %43, label %44, label %48

44:                                               ; preds = %.lr.ph
  %45 = load i64, ptr @H5E_DATASPACE_g, align 8, !tbaa !21
  %46 = load i64, ptr @H5E_CANTCOPY_g, align 8, !tbaa !21
  %47 = call i32 (ptr, ptr, i32, i64, i64, ptr, ...) @H5E_printf_stack(ptr noundef nonnull @.str.1, ptr noundef nonnull @__func__.H5D__create_piece_mem_map_1d, i32 noundef 2205, i64 noundef %45, i64 noundef %46, ptr noundef nonnull @.str.116) #15
  br label %.thread

48:                                               ; preds = %.lr.ph
  %49 = getelementptr inbounds nuw i8, ptr %39, i64 288
  %50 = load ptr, ptr %49, align 8, !tbaa !115
  %51 = call i64 @H5S_get_select_npoints(ptr noundef %50) #15
  store i64 %51, ptr %4, align 8, !tbaa !21
  %52 = load ptr, ptr %42, align 8, !tbaa !117
  %53 = call i32 @H5S_select_hyperslab(ptr noundef %52, i32 noundef 0, ptr noundef nonnull %2, ptr noundef null, ptr noundef nonnull %5, ptr noundef nonnull %4) #15
  %54 = icmp slt i32 %53, 0
  br i1 %54, label %55, label %59

55:                                               ; preds = %48
  %56 = load i64, ptr @H5E_DATASET_g, align 8, !tbaa !21
  %57 = load i64, ptr @H5E_CANTSELECT_g, align 8, !tbaa !21
  %58 = call i32 (ptr, ptr, i32, i64, i64, ptr, ...) @H5E_printf_stack(ptr noundef nonnull @.str.1, ptr noundef nonnull @__func__.H5D__create_piece_mem_map_1d, i32 noundef 2211, i64 noundef %56, i64 noundef %57, ptr noundef nonnull @.str.137) #15
  br label %.thread

.thread:                                          ; preds = %44, %55
  call void @llvm.lifetime.end.p0(i64 8, ptr nonnull %5) #15
  call void @llvm.lifetime.end.p0(i64 8, ptr nonnull %4) #15
  br label %.loopexit

59:                                               ; preds = %48
  %60 = load i64, ptr %4, align 8, !tbaa !21
  %61 = load i64, ptr %2, align 16, !tbaa !21
  %62 = add i64 %61, %60
  store i64 %62, ptr %2, align 16, !tbaa !21
  %63 = call ptr @H5SL_next(ptr noundef nonnull %.02431) #15
  call void @llvm.lifetime.end.p0(i64 8, ptr nonnull %5) #15
  call void @llvm.lifetime.end.p0(i64 8, ptr nonnull %4) #15
  %.not = icmp eq ptr %63, null
  br i1 %.not, label %.loopexit, label %.lr.ph, !llvm.loop !394

.loopexit:                                        ; preds = %59, %36, %.thread, %32
  %.123 = phi i32 [ -1, %32 ], [ -1, %.thread ], [ 0, %36 ], [ 0, %59 ]
  call void @llvm.lifetime.end.p0(i64 256, ptr nonnull %3) #15
  call void @llvm.lifetime.end.p0(i64 256, ptr nonnull %2) #15
  br label %64

64:                                               ; preds = %.loopexit, %1, %19
  %.026 = phi i32 [ 0, %19 ], [ %.123, %.loopexit ], [ 0, %1 ]
  ret i32 %.026
}